target datalayout = "e-m:e-p270:32:32-p271:32:32-p272:64:64-i64:64-i128:128-f80:128-n8:16:32:64-S128"
target triple = "x86_64-pc-linux-gnu"

%struct.CVodeMemRec = type { double, ptr, ptr, i32, i32, i32, double, double, ptr, i32, ptr, ptr, i32, ptr, i32, i32, double, double, ptr, i32, i32, i32, ptr, ptr, ptr, i32, i32, ptr, ptr, ptr, i32, double, i32, i32, double, ptr, ptr, i32, ptr, ptr, i32, i32, i32, double, ptr, ptr, [13 x ptr], ptr, ptr, ptr, ptr, ptr, [13 x ptr], ptr, ptr, ptr, ptr, [13 x ptr], ptr, ptr, ptr, ptr, ptr, i32, [13 x ptr], ptr, ptr, ptr, ptr, ptr, i32, double, i32, i32, i32, i32, i32, double, double, double, double, double, double, double, double, [14 x double], [6 x double], [13 x double], double, double, double, double, double, double, double, double, double, double, double, i32, ptr, i32, i64, i32, i32, i32, i32, i32, double, double, double, i64, i64, i64, i64, i64, i64, i64, i64, i64, ptr, i64, i64, ptr, i64, i64, i64, i64, i64, i64, i32, i64, i64, i64, i64, i64, i64, double, double, double, ptr, ptr, ptr, ptr, ptr, i32, i32, i64, double, double, double, i32, double, i32, i32, i32, i32, i32, i32, i32, i32, i32, i32, i32, i32, i32, i32, i32, i32, ptr, ptr, ptr, i32, [6 x [4 x double]], i32, i64, ptr, i32, ptr, ptr, double, double, double, ptr, ptr, ptr, double, double, i32, i32, i64, ptr, i32, i32, ptr, i32 }
%struct._generic_N_Vector = type { ptr, ptr }
%struct._generic_N_Vector_Ops = type { ptr, ptr, ptr, ptr, ptr, ptr, ptr, ptr, ptr, ptr, ptr, ptr, ptr, ptr, ptr, ptr, ptr, ptr, ptr, ptr, ptr, ptr, ptr, ptr, ptr }
%struct.CVSpilsMemRec = type { i32, i32, i32, double, double, double, double, i32, i64, i64, i64, i64, i64, i64, i64, ptr, ptr, ptr, ptr, ptr, ptr, ptr, ptr, ptr, i32, ptr, ptr, i64 }

@.str = private unnamed_addr constant [10 x i8] c"CVSPTFQMR\00", align 1
@.str.1 = private unnamed_addr constant [10 x i8] c"CVSptfqmr\00", align 1
@.str.2 = private unnamed_addr constant [27 x i8] c"Integrator memory is NULL.\00", align 1
@.str.3 = private unnamed_addr constant [48 x i8] c"A required vector operation is not implemented.\00", align 1
@.str.4 = private unnamed_addr constant [25 x i8] c"A memory request failed.\00", align 1
@.str.5 = private unnamed_addr constant [93 x i8] c"Illegal value for pretype. Legal values are PREC_NONE, PREC_LEFT, PREC_RIGHT, and PREC_BOTH.\00", align 1

; Function Attrs: nounwind uwtable
define i32 @CVSptfqmr(ptr noundef %0, i32 noundef %1, i32 noundef %2) #0 {
  %4 = alloca i32, align 4
  %5 = alloca ptr, align 8
  %6 = alloca i32, align 4
  %7 = alloca i32, align 4
  %8 = alloca ptr, align 8
  %9 = alloca ptr, align 8
  %10 = alloca ptr, align 8
  %11 = alloca i32, align 4
  %12 = alloca i32, align 4
  store ptr %0, ptr %5, align 8, !tbaa !3
  store i32 %1, ptr %6, align 4, !tbaa !7
  store i32 %2, ptr %7, align 4, !tbaa !7
  call void @llvm.lifetime.start.p0(i64 8, ptr %8) #5
  call void @llvm.lifetime.start.p0(i64 8, ptr %9) #5
  call void @llvm.lifetime.start.p0(i64 8, ptr %10) #5
  call void @llvm.lifetime.start.p0(i64 4, ptr %11) #5
  %13 = load ptr, ptr %5, align 8, !tbaa !3
  %14 = icmp eq ptr %13, null
  br i1 %14, label %15, label %16

15:                                               ; preds = %3
  call void (ptr, i32, ptr, ptr, ptr, ...) @cvProcessError(ptr noundef null, i32 noundef -1, ptr noundef @.str, ptr noundef @.str.1, ptr noundef @.str.2)
  store i32 -1, ptr %4, align 4
  store i32 1, ptr %12, align 4
  br label %172

16:                                               ; preds = %3
  %17 = load ptr, ptr %5, align 8, !tbaa !3
  store ptr %17, ptr %8, align 8, !tbaa !9
  %18 = load ptr, ptr %8, align 8, !tbaa !9
  %19 = getelementptr inbounds nuw %struct.CVodeMemRec, ptr %18, i32 0, i32 50
  %20 = load ptr, ptr %19, align 8, !tbaa !11
  %21 = getelementptr inbounds nuw %struct._generic_N_Vector, ptr %20, i32 0, i32 1
  %22 = load ptr, ptr %21, align 8, !tbaa !22
  %23 = getelementptr inbounds nuw %struct._generic_N_Vector_Ops, ptr %22, i32 0, i32 14
  %24 = load ptr, ptr %23, align 8, !tbaa !25
  %25 = icmp eq ptr %24, null
  br i1 %25, label %26, label %28

26:                                               ; preds = %16
  %27 = load ptr, ptr %8, align 8, !tbaa !9
  call void (ptr, i32, ptr, ptr, ptr, ...) @cvProcessError(ptr noundef %27, i32 noundef -3, ptr noundef @.str, ptr noundef @.str.1, ptr noundef @.str.3)
  store i32 -3, ptr %4, align 4
  store i32 1, ptr %12, align 4
  br label %172

28:                                               ; preds = %16
  %29 = load ptr, ptr %8, align 8, !tbaa !9
  %30 = getelementptr inbounds nuw %struct.CVodeMemRec, ptr %29, i32 0, i32 143
  %31 = load ptr, ptr %30, align 8, !tbaa !27
  %32 = icmp ne ptr %31, null
  br i1 %32, label %33, label %38

33:                                               ; preds = %28
  %34 = load ptr, ptr %8, align 8, !tbaa !9
  %35 = getelementptr inbounds nuw %struct.CVodeMemRec, ptr %34, i32 0, i32 143
  %36 = load ptr, ptr %35, align 8, !tbaa !27
  %37 = load ptr, ptr %8, align 8, !tbaa !9
  call void %36(ptr noundef %37)
  br label %38

38:                                               ; preds = %33, %28
  %39 = load ptr, ptr %8, align 8, !tbaa !9
  %40 = getelementptr inbounds nuw %struct.CVodeMemRec, ptr %39, i32 0, i32 140
  store ptr @CVSptfqmrInit, ptr %40, align 8, !tbaa !28
  %41 = load ptr, ptr %8, align 8, !tbaa !9
  %42 = getelementptr inbounds nuw %struct.CVodeMemRec, ptr %41, i32 0, i32 141
  store ptr @CVSptfqmrSetup, ptr %42, align 8, !tbaa !29
  %43 = load ptr, ptr %8, align 8, !tbaa !9
  %44 = getelementptr inbounds nuw %struct.CVodeMemRec, ptr %43, i32 0, i32 142
  store ptr @CVSptfqmrSolve, ptr %44, align 8, !tbaa !30
  %45 = load ptr, ptr %8, align 8, !tbaa !9
  %46 = getelementptr inbounds nuw %struct.CVodeMemRec, ptr %45, i32 0, i32 143
  store ptr @CVSptfqmrFree, ptr %46, align 8, !tbaa !27
  store ptr null, ptr %9, align 8, !tbaa !31
  %47 = call noalias ptr @malloc(i64 noundef 216) #6
  store ptr %47, ptr %9, align 8, !tbaa !31
  %48 = load ptr, ptr %9, align 8, !tbaa !31
  %49 = icmp eq ptr %48, null
  br i1 %49, label %50, label %52

50:                                               ; preds = %38
  %51 = load ptr, ptr %8, align 8, !tbaa !9
  call void (ptr, i32, ptr, ptr, ptr, ...) @cvProcessError(ptr noundef %51, i32 noundef -4, ptr noundef @.str, ptr noundef @.str.1, ptr noundef @.str.4)
  store i32 -4, ptr %4, align 4
  store i32 1, ptr %12, align 4
  br label %172

52:                                               ; preds = %38
  %53 = load ptr, ptr %9, align 8, !tbaa !31
  %54 = getelementptr inbounds nuw %struct.CVSpilsMemRec, ptr %53, i32 0, i32 0
  store i32 3, ptr %54, align 8, !tbaa !33
  %55 = load i32, ptr %6, align 4, !tbaa !7
  %56 = load ptr, ptr %9, align 8, !tbaa !31
  %57 = getelementptr inbounds nuw %struct.CVSpilsMemRec, ptr %56, i32 0, i32 1
  store i32 %55, ptr %57, align 4, !tbaa !35
  %58 = load i32, ptr %7, align 4, !tbaa !7
  %59 = icmp sle i32 %58, 0
  br i1 %59, label %60, label %61

60:                                               ; preds = %52
  br label %63

61:                                               ; preds = %52
  %62 = load i32, ptr %7, align 4, !tbaa !7
  br label %63

63:                                               ; preds = %61, %60
  %64 = phi i32 [ 5, %60 ], [ %62, %61 ]
  %65 = load ptr, ptr %9, align 8, !tbaa !31
  %66 = getelementptr inbounds nuw %struct.CVSpilsMemRec, ptr %65, i32 0, i32 7
  store i32 %64, ptr %66, align 8, !tbaa !36
  store i32 %64, ptr %11, align 4, !tbaa !7
  %67 = load ptr, ptr %9, align 8, !tbaa !31
  %68 = getelementptr inbounds nuw %struct.CVSpilsMemRec, ptr %67, i32 0, i32 24
  store i32 1, ptr %68, align 8, !tbaa !37
  %69 = load ptr, ptr %9, align 8, !tbaa !31
  %70 = getelementptr inbounds nuw %struct.CVSpilsMemRec, ptr %69, i32 0, i32 25
  store ptr null, ptr %70, align 8, !tbaa !38
  %71 = load ptr, ptr %9, align 8, !tbaa !31
  %72 = getelementptr inbounds nuw %struct.CVSpilsMemRec, ptr %71, i32 0, i32 26
  store ptr null, ptr %72, align 8, !tbaa !39
  %73 = load ptr, ptr %9, align 8, !tbaa !31
  %74 = getelementptr inbounds nuw %struct.CVSpilsMemRec, ptr %73, i32 0, i32 20
  store ptr null, ptr %74, align 8, !tbaa !40
  %75 = load ptr, ptr %9, align 8, !tbaa !31
  %76 = getelementptr inbounds nuw %struct.CVSpilsMemRec, ptr %75, i32 0, i32 21
  store ptr null, ptr %76, align 8, !tbaa !41
  %77 = load ptr, ptr %9, align 8, !tbaa !31
  %78 = getelementptr inbounds nuw %struct.CVSpilsMemRec, ptr %77, i32 0, i32 22
  store ptr null, ptr %78, align 8, !tbaa !42
  %79 = load ptr, ptr %8, align 8, !tbaa !9
  %80 = getelementptr inbounds nuw %struct.CVodeMemRec, ptr %79, i32 0, i32 2
  %81 = load ptr, ptr %80, align 8, !tbaa !43
  %82 = load ptr, ptr %9, align 8, !tbaa !31
  %83 = getelementptr inbounds nuw %struct.CVSpilsMemRec, ptr %82, i32 0, i32 23
  store ptr %81, ptr %83, align 8, !tbaa !44
  %84 = load ptr, ptr %9, align 8, !tbaa !31
  %85 = getelementptr inbounds nuw %struct.CVSpilsMemRec, ptr %84, i32 0, i32 4
  store double 5.000000e-02, ptr %85, align 8, !tbaa !45
  %86 = load ptr, ptr %9, align 8, !tbaa !31
  %87 = getelementptr inbounds nuw %struct.CVSpilsMemRec, ptr %86, i32 0, i32 27
  store i64 0, ptr %87, align 8, !tbaa !46
  %88 = load ptr, ptr %8, align 8, !tbaa !9
  %89 = getelementptr inbounds nuw %struct.CVodeMemRec, ptr %88, i32 0, i32 158
  store i32 0, ptr %89, align 4, !tbaa !47
  %90 = load i32, ptr %6, align 4, !tbaa !7
  %91 = icmp ne i32 %90, 0
  br i1 %91, label %92, label %104

92:                                               ; preds = %63
  %93 = load i32, ptr %6, align 4, !tbaa !7
  %94 = icmp ne i32 %93, 1
  br i1 %94, label %95, label %104

95:                                               ; preds = %92
  %96 = load i32, ptr %6, align 4, !tbaa !7
  %97 = icmp ne i32 %96, 2
  br i1 %97, label %98, label %104

98:                                               ; preds = %95
  %99 = load i32, ptr %6, align 4, !tbaa !7
  %100 = icmp ne i32 %99, 3
  br i1 %100, label %101, label %104

101:                                              ; preds = %98
  %102 = load ptr, ptr %8, align 8, !tbaa !9
  call void (ptr, i32, ptr, ptr, ptr, ...) @cvProcessError(ptr noundef %102, i32 noundef -3, ptr noundef @.str, ptr noundef @.str.1, ptr noundef @.str.5)
  %103 = load ptr, ptr %9, align 8, !tbaa !31
  call void @free(ptr noundef %103) #5
  store ptr null, ptr %9, align 8, !tbaa !31
  store i32 -3, ptr %4, align 4
  store i32 1, ptr %12, align 4
  br label %172

104:                                              ; preds = %98, %95, %92, %63
  %105 = load ptr, ptr %8, align 8, !tbaa !9
  %106 = getelementptr inbounds nuw %struct.CVodeMemRec, ptr %105, i32 0, i32 50
  %107 = load ptr, ptr %106, align 8, !tbaa !11
  %108 = call ptr @N_VClone(ptr noundef %107)
  %109 = load ptr, ptr %9, align 8, !tbaa !31
  %110 = getelementptr inbounds nuw %struct.CVSpilsMemRec, ptr %109, i32 0, i32 15
  store ptr %108, ptr %110, align 8, !tbaa !48
  %111 = load ptr, ptr %9, align 8, !tbaa !31
  %112 = getelementptr inbounds nuw %struct.CVSpilsMemRec, ptr %111, i32 0, i32 15
  %113 = load ptr, ptr %112, align 8, !tbaa !48
  %114 = icmp eq ptr %113, null
  br i1 %114, label %115, label %118

115:                                              ; preds = %104
  %116 = load ptr, ptr %8, align 8, !tbaa !9
  call void (ptr, i32, ptr, ptr, ptr, ...) @cvProcessError(ptr noundef %116, i32 noundef -4, ptr noundef @.str, ptr noundef @.str.1, ptr noundef @.str.4)
  %117 = load ptr, ptr %9, align 8, !tbaa !31
  call void @free(ptr noundef %117) #5
  store ptr null, ptr %9, align 8, !tbaa !31
  store i32 -4, ptr %4, align 4
  store i32 1, ptr %12, align 4
  br label %172

118:                                              ; preds = %104
  %119 = load ptr, ptr %8, align 8, !tbaa !9
  %120 = getelementptr inbounds nuw %struct.CVodeMemRec, ptr %119, i32 0, i32 50
  %121 = load ptr, ptr %120, align 8, !tbaa !11
  %122 = call ptr @N_VClone(ptr noundef %121)
  %123 = load ptr, ptr %9, align 8, !tbaa !31
  %124 = getelementptr inbounds nuw %struct.CVSpilsMemRec, ptr %123, i32 0, i32 16
  store ptr %122, ptr %124, align 8, !tbaa !49
  %125 = load ptr, ptr %9, align 8, !tbaa !31
  %126 = getelementptr inbounds nuw %struct.CVSpilsMemRec, ptr %125, i32 0, i32 16
  %127 = load ptr, ptr %126, align 8, !tbaa !49
  %128 = icmp eq ptr %127, null
  br i1 %128, label %129, label %135

129:                                              ; preds = %118
  %130 = load ptr, ptr %8, align 8, !tbaa !9
  call void (ptr, i32, ptr, ptr, ptr, ...) @cvProcessError(ptr noundef %130, i32 noundef -4, ptr noundef @.str, ptr noundef @.str.1, ptr noundef @.str.4)
  %131 = load ptr, ptr %9, align 8, !tbaa !31
  %132 = getelementptr inbounds nuw %struct.CVSpilsMemRec, ptr %131, i32 0, i32 15
  %133 = load ptr, ptr %132, align 8, !tbaa !48
  call void @N_VDestroy(ptr noundef %133)
  %134 = load ptr, ptr %9, align 8, !tbaa !31
  call void @free(ptr noundef %134) #5
  store ptr null, ptr %9, align 8, !tbaa !31
  store i32 -4, ptr %4, align 4
  store i32 1, ptr %12, align 4
  br label %172

135:                                              ; preds = %118
  %136 = load ptr, ptr %9, align 8, !tbaa !31
  %137 = getelementptr inbounds nuw %struct.CVSpilsMemRec, ptr %136, i32 0, i32 15
  %138 = load ptr, ptr %137, align 8, !tbaa !48
  call void @N_VConst(double noundef 1.000000e+00, ptr noundef %138)
  %139 = load ptr, ptr %9, align 8, !tbaa !31
  %140 = getelementptr inbounds nuw %struct.CVSpilsMemRec, ptr %139, i32 0, i32 15
  %141 = load ptr, ptr %140, align 8, !tbaa !48
  %142 = load ptr, ptr %9, align 8, !tbaa !31
  %143 = getelementptr inbounds nuw %struct.CVSpilsMemRec, ptr %142, i32 0, i32 15
  %144 = load ptr, ptr %143, align 8, !tbaa !48
  %145 = call double @N_VDotProd(ptr noundef %141, ptr noundef %144)
  %146 = call double @SUNRsqrt(double noundef %145)
  %147 = load ptr, ptr %9, align 8, !tbaa !31
  %148 = getelementptr inbounds nuw %struct.CVSpilsMemRec, ptr %147, i32 0, i32 3
  store double %146, ptr %148, align 8, !tbaa !50
  store ptr null, ptr %10, align 8, !tbaa !3
  %149 = load i32, ptr %11, align 4, !tbaa !7
  %150 = load ptr, ptr %8, align 8, !tbaa !9
  %151 = getelementptr inbounds nuw %struct.CVodeMemRec, ptr %150, i32 0, i32 50
  %152 = load ptr, ptr %151, align 8, !tbaa !11
  %153 = call ptr @SptfqmrMalloc(i32 noundef %149, ptr noundef %152)
  store ptr %153, ptr %10, align 8, !tbaa !3
  %154 = load ptr, ptr %10, align 8, !tbaa !3
  %155 = icmp eq ptr %154, null
  br i1 %155, label %156, label %165

156:                                              ; preds = %135
  %157 = load ptr, ptr %8, align 8, !tbaa !9
  call void (ptr, i32, ptr, ptr, ptr, ...) @cvProcessError(ptr noundef %157, i32 noundef -4, ptr noundef @.str, ptr noundef @.str.1, ptr noundef @.str.4)
  %158 = load ptr, ptr %9, align 8, !tbaa !31
  %159 = getelementptr inbounds nuw %struct.CVSpilsMemRec, ptr %158, i32 0, i32 15
  %160 = load ptr, ptr %159, align 8, !tbaa !48
  call void @N_VDestroy(ptr noundef %160)
  %161 = load ptr, ptr %9, align 8, !tbaa !31
  %162 = getelementptr inbounds nuw %struct.CVSpilsMemRec, ptr %161, i32 0, i32 16
  %163 = load ptr, ptr %162, align 8, !tbaa !49
  call void @N_VDestroy(ptr noundef %163)
  %164 = load ptr, ptr %9, align 8, !tbaa !31
  call void @free(ptr noundef %164) #5
  store ptr null, ptr %9, align 8, !tbaa !31
  store i32 -4, ptr %4, align 4
  store i32 1, ptr %12, align 4
  br label %172

165:                                              ; preds = %135
  %166 = load ptr, ptr %10, align 8, !tbaa !3
  %167 = load ptr, ptr %9, align 8, !tbaa !31
  %168 = getelementptr inbounds nuw %struct.CVSpilsMemRec, ptr %167, i32 0, i32 19
  store ptr %166, ptr %168, align 8, !tbaa !51
  %169 = load ptr, ptr %9, align 8, !tbaa !31
  %170 = load ptr, ptr %8, align 8, !tbaa !9
  %171 = getelementptr inbounds nuw %struct.CVodeMemRec, ptr %170, i32 0, i32 144
  store ptr %169, ptr %171, align 8, !tbaa !52
  store i32 0, ptr %4, align 4
  store i32 1, ptr %12, align 4
  br label %172

172:                                              ; preds = %165, %156, %129, %115, %101, %50, %26, %15
  call void @llvm.lifetime.end.p0(i64 4, ptr %11) #5
  call void @llvm.lifetime.end.p0(i64 8, ptr %10) #5
  call void @llvm.lifetime.end.p0(i64 8, ptr %9) #5
  call void @llvm.lifetime.end.p0(i64 8, ptr %8) #5
  %173 = load i32, ptr %4, align 4
  ret i32 %173
}